; Function Attrs: nounwind uwtable
define internal noundef i32 @H5E__close_stack(ptr noundef %0, ptr readnone captures(none) %1) #0 {
  %3 = load i8, ptr @H5E_init_g, align 1, !tbaa !3, !range !7, !noundef !8
  %4 = trunc nuw i8 %3 to i1
  %5 = load i8, ptr @H5_libterm_g, align 1, !range !7
  %6 = trunc nuw i8 %5 to i1
  %7 = xor i1 %6, true
  %8 = select i1 %4, i1 true, i1 %7
  br i1 %8, label %9, label %20, !prof !9

9:                                                ; preds = %2
  %10 = icmp eq ptr %0, null
  %spec.store.select.i = select i1 %10, ptr @H5E_stack_g, ptr %0
  %11 = load i64, ptr %spec.store.select.i, align 8, !tbaa !13
  %.not.i = icmp eq i64 %11, 0
  br i1 %.not.i, label %H5E__destroy_stack.exit, label %12

12:                                               ; preds = %9
  %13 = tail call fastcc i32 @H5E__clear_entries(ptr noundef nonnull %spec.store.select.i, i64 noundef %11)
  %14 = icmp slt i32 %13, 0
  br i1 %14, label %15, label %H5E__destroy_stack.exit

15:                                               ; preds = %12
  %16 = load i64, ptr @H5E_ERROR_g, align 8, !tbaa !10
  %17 = load i64, ptr @H5E_CANTSET_g, align 8, !tbaa !10
  %18 = tail call i32 (ptr, ptr, i32, i64, i64, ptr, ...) @H5E_printf_stack(ptr noundef nonnull @.str.1, ptr noundef nonnull @__func__.H5E__destroy_stack, i32 noundef 1892, i64 noundef %16, i64 noundef %17, ptr noundef nonnull @.str.15)
  br label %H5E__destroy_stack.exit

H5E__destroy_stack.exit:                          ; preds = %9, %12, %15
  %19 = tail call ptr @H5FL_reg_free(ptr noundef nonnull @H5_H5E_stack_t_reg_free_list, ptr noundef %0) #16
  br label %20

20:                                               ; preds = %H5E__destroy_stack.exit, %2
  ret i32 0
}